; Function Attrs: mustprogress nofree norecurse nosync nounwind willreturn memory(readwrite, inaccessiblemem: none) uwtable
define hidden void @VP8IteratorInit(ptr noundef %0, ptr noundef initializes((40, 48)) %1) local_unnamed_addr #0 {
  %3 = getelementptr inbounds nuw i8, ptr %1, i64 40
  store ptr %0, ptr %3, align 8, !tbaa !3
  %4 = getelementptr inbounds nuw i8, ptr %1, i64 488
  %5 = ptrtoint ptr %4 to i64
  %6 = add i64 %5, 31
  %7 = and i64 %6, -32
  %8 = inttoptr i64 %7 to ptr
  %9 = getelementptr inbounds nuw i8, ptr %1, i64 8
  store ptr %8, ptr %9, align 8, !tbaa !51
  %10 = getelementptr inbounds nuw i8, ptr %8, i64 512
  %11 = getelementptr inbounds nuw i8, ptr %1, i64 16
  store ptr %10, ptr %11, align 8, !tbaa !52
  %12 = getelementptr inbounds nuw i8, ptr %8, i64 1024
  %13 = getelementptr inbounds nuw i8, ptr %1, i64 24
  store ptr %12, ptr %13, align 8, !tbaa !53
  %14 = getelementptr inbounds nuw i8, ptr %8, i64 1536
  %15 = getelementptr inbounds nuw i8, ptr %1, i64 32
  store ptr %14, ptr %15, align 8, !tbaa !54
  %16 = getelementptr inbounds nuw i8, ptr %0, i64 23688
  %17 = load ptr, ptr %16, align 8, !tbaa !55
  %18 = getelementptr inbounds nuw i8, ptr %1, i64 320
  store ptr %17, ptr %18, align 8, !tbaa !56
  %19 = getelementptr inbounds nuw i8, ptr %0, i64 536
  %20 = load i32, ptr %19, align 8, !tbaa !57
  %21 = getelementptr inbounds nuw i8, ptr %1, i64 340
  store i32 %20, ptr %21, align 4, !tbaa !58
  %22 = getelementptr inbounds nuw i8, ptr %1, i64 401
  %23 = ptrtoint ptr %22 to i64
  %24 = add i64 %23, 31
  %25 = and i64 %24, -32
  %26 = inttoptr i64 %25 to ptr
  %27 = getelementptr inbounds nuw i8, ptr %1, i64 360
  store ptr %26, ptr %27, align 8, !tbaa !46
  %28 = getelementptr inbounds nuw i8, ptr %26, i64 32
  %29 = getelementptr inbounds nuw i8, ptr %1, i64 368
  store ptr %28, ptr %29, align 8, !tbaa !45
  %30 = getelementptr inbounds nuw i8, ptr %26, i64 48
  %31 = getelementptr inbounds nuw i8, ptr %1, i64 376
  store ptr %30, ptr %31, align 8, !tbaa !43
  %32 = getelementptr inbounds nuw i8, ptr %0, i64 23696
  %33 = load ptr, ptr %32, align 8, !tbaa !59
  %34 = getelementptr inbounds nuw i8, ptr %1, i64 352
  store ptr %33, ptr %34, align 8, !tbaa !48
  store i32 0, ptr %1, align 8, !tbaa !15
  %35 = getelementptr inbounds nuw i8, ptr %1, i64 4
  store i32 0, ptr %35, align 4, !tbaa !16
  %36 = getelementptr inbounds nuw i8, ptr %0, i64 112
  %37 = getelementptr inbounds nuw i8, ptr %1, i64 56
  store ptr %36, ptr %37, align 8, !tbaa !30
  %38 = getelementptr inbounds nuw i8, ptr %0, i64 23656
  %39 = load ptr, ptr %38, align 8, !tbaa !31
  %40 = getelementptr inbounds nuw i8, ptr %1, i64 64
  store ptr %39, ptr %40, align 8, !tbaa !33
  %41 = getelementptr inbounds nuw i8, ptr %0, i64 23664
  %42 = load ptr, ptr %41, align 8, !tbaa !34
  %43 = getelementptr inbounds nuw i8, ptr %1, i64 72
  store ptr %42, ptr %43, align 8, !tbaa !35
  %44 = getelementptr inbounds nuw i8, ptr %0, i64 23648
  %45 = load ptr, ptr %44, align 8, !tbaa !36
  %46 = getelementptr inbounds nuw i8, ptr %0, i64 48
  %47 = getelementptr inbounds nuw i8, ptr %1, i64 48
  store ptr %45, ptr %47, align 8, !tbaa !38
  %48 = getelementptr inbounds nuw i8, ptr %0, i64 23672
  %49 = load ptr, ptr %48, align 8, !tbaa !39
  %50 = getelementptr inbounds nuw i8, ptr %1, i64 384
  store ptr %49, ptr %50, align 8, !tbaa !40
  %51 = getelementptr inbounds nuw i8, ptr %0, i64 23680
  %52 = load ptr, ptr %51, align 8, !tbaa !41
  %53 = getelementptr inbounds nuw i8, ptr %1, i64 392
  store ptr %52, ptr %53, align 8, !tbaa !42
  %54 = getelementptr inbounds nuw i8, ptr %26, i64 47
  store i8 127, ptr %54, align 1, !tbaa !44
  %55 = load ptr, ptr %29, align 8, !tbaa !45
  %56 = getelementptr inbounds i8, ptr %55, i64 -1
  store i8 127, ptr %56, align 1, !tbaa !44
  %57 = load ptr, ptr %27, align 8, !tbaa !46
  %58 = getelementptr inbounds i8, ptr %57, i64 -1
  store i8 127, ptr %58, align 1, !tbaa !44
  %59 = load ptr, ptr %27, align 8, !tbaa !46
  tail call void @llvm.memset.p0.i64(ptr noundef nonnull align 1 dereferenceable(16) %59, i8 -127, i64 16, i1 false)
  %60 = load ptr, ptr %29, align 8, !tbaa !45
  store i64 -9114861777597660799, ptr %60, align 1
  %61 = load ptr, ptr %31, align 8, !tbaa !43
  store i64 -9114861777597660799, ptr %61, align 1
  %62 = getelementptr inbounds nuw i8, ptr %1, i64 200
  store i32 0, ptr %62, align 8, !tbaa !47
  %63 = load ptr, ptr %34, align 8, !tbaa !48
  %.not.i.i.i = icmp eq ptr %63, null
  br i1 %.not.i.i.i, label %VP8IteratorSetRow.exit.i, label %64

64:                                               ; preds = %2
  %65 = getelementptr inbounds nuw i8, ptr %1, i64 344
  store i32 0, ptr %65, align 8
  br label %VP8IteratorSetRow.exit.i

VP8IteratorSetRow.exit.i:                         ; preds = %64, %2
  %66 = load i32, ptr %46, align 8, !tbaa !37
  %67 = getelementptr inbounds nuw i8, ptr %0, i64 52
  %68 = load i32, ptr %67, align 4, !tbaa !60
  %69 = mul nsw i32 %68, %66
  %70 = getelementptr inbounds nuw i8, ptr %1, i64 336
  store i32 %69, ptr %70, align 8, !tbaa !49
  %71 = getelementptr inbounds nuw i8, ptr %1, i64 332
  store i32 %69, ptr %71, align 4, !tbaa !50
  %.val.i = load ptr, ptr %3, align 8, !tbaa !3
  %72 = getelementptr inbounds nuw i8, ptr %.val.i, i64 48
  %73 = load i32, ptr %72, align 8, !tbaa !37
  %74 = shl nsw i32 %73, 4
  %75 = sext i32 %74 to i64
  %76 = getelementptr inbounds nuw i8, ptr %.val.i, i64 23672
  %77 = load ptr, ptr %76, align 8, !tbaa !39
  %78 = shl nsw i64 %75, 1
  tail call void @llvm.memset.p0.i64(ptr align 1 %77, i8 127, i64 %78, i1 false)
  %79 = getelementptr inbounds nuw i8, ptr %.val.i, i64 23664
  %80 = load ptr, ptr %79, align 8, !tbaa !34
  %81 = load i32, ptr %72, align 8, !tbaa !37
  %82 = sext i32 %81 to i64
  %83 = shl nsw i64 %82, 2
  tail call void @llvm.memset.p0.i64(ptr align 4 %80, i8 0, i64 %83, i1 false)
  %84 = getelementptr inbounds nuw i8, ptr %.val.i, i64 23696
  %85 = load ptr, ptr %84, align 8, !tbaa !59
  %.not.i.i = icmp eq ptr %85, null
  br i1 %.not.i.i, label %VP8IteratorReset.exit, label %86

86:                                               ; preds = %VP8IteratorSetRow.exit.i
  %87 = load i32, ptr %72, align 8, !tbaa !37
  %88 = sext i32 %87 to i64
  %89 = shl nsw i64 %88, 2
  tail call void @llvm.memset.p0.i64(ptr nonnull align 1 %85, i8 0, i64 %89, i1 false)
  br label %VP8IteratorReset.exit

VP8IteratorReset.exit:                            ; preds = %VP8IteratorSetRow.exit.i, %86
  %90 = getelementptr inbounds nuw i8, ptr %1, i64 208
  tail call void @llvm.memset.p0.i64(ptr noundef nonnull align 8 dereferenceable(96) %90, i8 0, i64 96, i1 false)
  %91 = getelementptr inbounds nuw i8, ptr %1, i64 328
  store i32 0, ptr %91, align 8, !tbaa !61
  ret void
}